; Function Attrs: mustprogress nofree norecurse nosync nounwind willreturn memory(read, inaccessiblemem: none) uwtable
define hidden noundef i32 @_ZNK4perf8TestBase17getTotalInputSizeEv(ptr noundef nonnull readonly align 8 captures(none) dereferenceable(248) %0) local_unnamed_addr #11 align 2 {
  %2 = getelementptr inbounds nuw i8, ptr %0, i64 16
  %3 = load ptr, ptr %2, align 8, !tbaa !332
  %4 = getelementptr inbounds nuw i8, ptr %0, i64 24
  %5 = load ptr, ptr %4, align 8, !tbaa !332
  %.not5 = icmp eq ptr %3, %5
  br i1 %.not5, label %._crit_edge, label %.lr.ph

._crit_edge:                                      ; preds = %.lr.ph, %1
  %.0.lcssa = phi i32 [ 0, %1 ], [ %7, %.lr.ph ]
  ret i32 %.0.lcssa

.lr.ph:                                           ; preds = %1, %.lr.ph
  %.07 = phi i32 [ %7, %.lr.ph ], [ 0, %1 ]
  %.sroa.02.06 = phi ptr [ %8, %.lr.ph ], [ %3, %1 ]
  %6 = load i32, ptr %.sroa.02.06, align 4, !tbaa !333
  %7 = add i32 %6, %.07
  %8 = getelementptr inbounds nuw i8, ptr %.sroa.02.06, i64 12
  %.not = icmp eq ptr %8, %5
  br i1 %.not, label %._crit_edge, label %.lr.ph, !llvm.loop !335
}